; Function Attrs: mustprogress uwtable
define dso_local noundef zeroext i1 @_ZN4pbrt10FileExistsENSt7__cxx1112basic_stringIcSt11char_traitsIcESaIcEEE(ptr noundef nonnull %0) local_unnamed_addr #2 personality ptr @__gxx_personality_v0 {
  %2 = alloca %"class.std::basic_ifstream", align 8
  call void @llvm.lifetime.start.p0(i64 520, ptr nonnull %2) #29
  call void @_ZNSt14basic_ifstreamIcSt11char_traitsIcEEC1ERKNSt7__cxx1112basic_stringIcS1_SaIcEEESt13_Ios_Openmode(ptr noundef nonnull align 8 dereferenceable(256) %2, ptr noundef nonnull align 8 dereferenceable(32) %0, i32 noundef 8)
  %3 = load ptr, ptr %2, align 8, !tbaa !51
  %4 = getelementptr i8, ptr %3, i64 -24
  %5 = load i64, ptr %4, align 8
  %6 = getelementptr inbounds i8, ptr %2, i64 %5
  %7 = getelementptr inbounds nuw i8, ptr %6, i64 32
  %8 = load i32, ptr %7, align 8, !tbaa !87
  %9 = and i32 %8, 5
  %.not.i = icmp eq i32 %9, 0
  call void @_ZNSt14basic_ifstreamIcSt11char_traitsIcEED1Ev(ptr noundef nonnull align 8 dereferenceable(256) %2) #29
  call void @llvm.lifetime.end.p0(i64 520, ptr nonnull %2) #29
  ret i1 %.not.i
}